1		0000		        		START:
2		0000		3000			MOV A, #0H
3		0002		3800			MOV R0, #0H
4		0004		3900			MOV R1, #0H
5		0006		3A00			MOV R2, #0H
6		0008		3B00			MOV R3, #0H
7		000A		3C00			MOV R4, #0H
8		000C		3D00			MOV R5, #0H
9		000E		3E00			MOV R6, #0H
10		0010		3F00			MOV R7, #0H
11		0012		        		RD0:
12		0012		600012		JNKB RD0
13		0015		408001		LDA 8001H
14		0018		08			MOV R0, A
15		0019		        		RD1:
16		0019		600019		JNKB RD1
17		001C		408001		LDA 8001H
18		001F		09			MOV R1, A
19		0020		        		RDP:
20		0020		600020		JNKB RDP
21		0023		408001		LDA 8001H
22		0026		3000			MOV A, #0H
23		0028		        		P11:
24		0028		680028		JNPB P11
25		002B		488002		STA 8002H
26		002E		300A			MOV A, #0AH
27		0030		        		P12:
28		0030		680030		JNPB P12
29		0033		488002		STA 8002H
30		0036		01			MOV A, R1
31		0037		        		P13:
32		0037		680037		JNPB P13
33		003A		488002		STA 8002H
34		003D		00			MOV A, R0
35		003E		3F10			MOV R7, #10H
36		0040		27			ADD A, R7
37		0041		        		P14:
38		0041		680041		JNPB P14
39		0044		488002		STA 8002H
40		0047		        		RD2:
41		0047		600047		JNKB RD2
42		004A		408001		LDA 8001H
43		004D		0A			MOV R2, A
44		004E		        		RD3:
45		004E		60004E		JNKB RD3
46		0051		408001		LDA 8001H
47		0054		0B			MOV R3, A
48		0055		        		RDE:
49		0055		600055		JNKB RDE
50		0058		408001		LDA 8001H
51		005B		3009			MOV A, #09H
52		005D		        		P01:
53		005D		68005D		JNPB P01
54		0060		488002		STA 8002H
55		0063		300A			MOV A, #0AH
56		0065		        		P02:
57		0065		680065		JNPB P02
58		0068		488002		STA 8002H
59		006B		03			MOV A, R3
60		006C		        		P03:
61		006C		68006C		JNPB P03
62		006F		488002		STA 8002H
63		0072		02			MOV A, R2
64		0073		3F10			MOV R7, #10H
65		0075		27			ADD A, R7
66		0076		        		P04:
67		0076		680076		JNPB P04
68		0079		488002		STA 8002H
69		007C		01			MOV A, R1
70		007D		23			ADD A, R3
71		007E		3F0A			MOV R7, #0AH
72		0080		2F			SUB A, R7
73		0081		500096		JC EN0
74		0084		0E			MOV R6, A 
75		0085		3F01			MOV R7, #1H
76		0087		00			MOV A, R0
77		0088		22			ADD A, R2
78		0089		27			ADD A, R7
79		008A		3F0A			MOV R7, #0AH
80		008C		2F			SUB A, R7
81		008D		5000A8		JC EN1
82		0090		0D			MOV R5, A 
83		0091		3C01			MOV R4, #01H 
84		0093		5800AE		JMP END
85		0096		        		EN0:
86		0096		3F0A			MOV R7, #0AH 
87		0098		27			ADD A, R7
88		0099		0E			MOV R6, A
89		009A		00			MOV A, R0
90		009B		22			ADD A, R2
91		009C		3F0A			MOV R7, #0AH
92		009E		2F			SUB A, R7
93		009F		5000A8		JC EN1
94		00A2		0D			MOV R5, A 
95		00A3		3C01			MOV R4, #01H 
96		00A5		5800AE		JMP END
97		00A8		        		EN1:
98		00A8		3F0A			MOV R7, #0AH 
99		00AA		27			ADD A, R7
100		00AB		0D			MOV R5, A
101		00AC		3C00			MOV R4, #0H 
102		00AE		        		END:
103		00AE		3003			MOV A, #03H
104		00B0		        		P31:
105		00B0		6800B0		JNPB P31
106		00B3		488002		STA 8002H
107		00B6		300A			MOV A, #0AH
108		00B8		        		P32:
109		00B8		6800B8		JNPB P32
110		00BB		488002		STA 8002H
111		00BE		06			MOV A, R6
112		00BF		        		P33:
113		00BF		6800BF		JNPB P33
114		00C2		488002		STA 8002H
115		00C5		04			MOV A, R4
116		00C6		3F01			MOV R7, #01H
117		00C8		2F			SUB A, R7
118		00C9		5000E0		JC END0
119		00CC		05			MOV A, R5
120		00CD		        		P36:
121		00CD		6800CD		JNPB P36
122		00D0		488002		STA 8002H
123		00D3		04			MOV A, R4
124		00D4		3F10			MOV R7, #10H
125		00D6		27			ADD A, R7
126		00D7		        		P35:
127		00D7		6800D7		JNPB P35
128		00DA		488002		STA 8002H
129		00DD		5800EA		JMP END1
130		00E0		        		END0:
131		00E0		05			MOV A, R5
132		00E1		3F10			MOV R7, #10H
133		00E3		27			ADD A, R7
134		00E4		        		P34:
135		00E4		6800E4		JNPB P34
136		00E7		488002		STA 8002H
137		00EA		        		END1:
138		00EA		580000		JMP START
